; Function Attrs: mustprogress uwtable
define void @_ZN12colvarmodule10atom_group19update_total_chargeEv(ptr nocapture noundef nonnull align 8 dereferenceable(1440) %0) local_unnamed_addr #2 align 2 {
  %2 = getelementptr inbounds i8, ptr %0, i64 628
  %3 = load i8, ptr %2, align 4
  %4 = trunc i8 %3 to i1
  br i1 %4, label %.loopexit.sink.split, label %5

5:                                                ; preds = %1
  %6 = getelementptr inbounds i8, ptr %0, i64 368
  %7 = load ptr, ptr %6, align 8
  %8 = getelementptr inbounds i8, ptr %7, i64 257
  %9 = load i8, ptr %8, align 1
  %10 = trunc i8 %9 to i1
  br i1 %10, label %11, label %21

11:                                               ; preds = %5
  %12 = tail call noundef ptr @_ZN12colvarmodule4mainEv()
  %13 = load ptr, ptr @_ZN12colvarmodule5proxyE, align 8
  %14 = getelementptr inbounds i8, ptr %0, i64 624
  %15 = load i32, ptr %14, align 8
  %16 = getelementptr inbounds i8, ptr %13, i64 536
  %17 = sext i32 %15 to i64
  %18 = load ptr, ptr %16, align 8
  %19 = getelementptr inbounds double, ptr %18, i64 %17
  %20 = load double, ptr %19, align 8
  br label %.loopexit.sink.split

21:                                               ; preds = %5
  %22 = getelementptr inbounds i8, ptr %0, i64 1280
  store double 0.000000e+00, ptr %22, align 8
  %23 = getelementptr inbounds i8, ptr %0, i64 504
  %24 = load ptr, ptr %23, align 8
  %25 = getelementptr inbounds i8, ptr %0, i64 512
  %26 = load ptr, ptr %25, align 8
  %.not4 = icmp eq ptr %24, %26
  br i1 %.not4, label %.loopexit, label %.lr.ph

.lr.ph:                                           ; preds = %21, %.lr.ph
  %.sroa.01.05 = phi ptr [ %31, %.lr.ph ], [ %24, %21 ]
  %27 = phi double [ %30, %.lr.ph ], [ 0.000000e+00, %21 ]
  %28 = getelementptr inbounds i8, ptr %.sroa.01.05, i64 16
  %29 = load double, ptr %28, align 8
  %30 = fadd double %29, %27
  store double %30, ptr %22, align 8
  %31 = getelementptr inbounds i8, ptr %.sroa.01.05, i64 120
  %.not = icmp eq ptr %31, %26
  br i1 %.not, label %.loopexit, label %.lr.ph, !llvm.loop !22

.loopexit.sink.split:                             ; preds = %1, %11
  %.sink = phi double [ %20, %11 ], [ 0.000000e+00, %1 ]
  %32 = getelementptr inbounds i8, ptr %0, i64 1280
  store double %.sink, ptr %32, align 8
  br label %.loopexit

.loopexit:                                        ; preds = %.lr.ph, %.loopexit.sink.split, %21
  ret void
}